; Function Attrs: nofree norecurse nosync nounwind memory(argmem: readwrite) uwtable
define void @av_xtea_init(ptr noundef writeonly captures(none) %0, ptr noundef readonly captures(none) %1) local_unnamed_addr #2 {
  br label %3

3:                                                ; preds = %2, %3
  %indvars.iv = phi i64 [ 0, %2 ], [ %indvars.iv.next, %3 ]
  %4 = shl nuw nsw i64 %indvars.iv, 2
  %5 = getelementptr inbounds nuw i8, ptr %1, i64 %4
  %6 = load i32, ptr %5, align 1, !tbaa !4
  %7 = tail call i32 @llvm.bswap.i32(i32 %6)
  %8 = getelementptr inbounds nuw [16 x i32], ptr %0, i64 0, i64 %indvars.iv
  store i32 %7, ptr %8, align 4, !tbaa !7
  %indvars.iv.next = add nuw nsw i64 %indvars.iv, 1
  %exitcond.not = icmp eq i64 %indvars.iv.next, 4
  br i1 %exitcond.not, label %9, label %3, !llvm.loop !9

9:                                                ; preds = %3
  ret void
}